target datalayout = "e-m:e-p270:32:32-p271:32:32-p272:64:64-i64:64-i128:128-f80:128-n8:16:32:64-S128"
target triple = "x86_64-unknown-linux-gnu"

%"class.icu_75::UObject" = type { ptr }
%"class.icu_75::CollationBuilder" = type { %"class.icu_75::CollationRuleParser::Sink", ptr, ptr, ptr, ptr, ptr, %"class.icu_75::CollationRootElements", i32, ptr, i8, i8, [6 x i8], %"class.icu_75::UnicodeSet", ptr, [31 x i64], i32, %"class.icu_75::UVector32", %"class.icu_75::UVector64" }
%"class.icu_75::CollationRuleParser::Sink" = type { %"class.icu_75::UObject" }
%"class.icu_75::CollationRootElements" = type <{ ptr, i32, [4 x i8] }>
%"class.icu_75::UnicodeSet" = type <{ %"class.icu_75::UnicodeFilter", ptr, i32, i32, i8, [7 x i8], ptr, ptr, i32, [4 x i8], ptr, i32, [4 x i8], ptr, ptr, [25 x i32], [4 x i8] }>
%"class.icu_75::UnicodeFilter" = type { %"class.icu_75::UnicodeFunctor", %"class.icu_75::UnicodeMatcher" }
%"class.icu_75::UnicodeFunctor" = type { %"class.icu_75::UObject" }
%"class.icu_75::UnicodeMatcher" = type { ptr }
%"class.icu_75::UVector32" = type { %"class.icu_75::UObject", i32, i32, i32, ptr }
%"class.icu_75::UVector64" = type { %"class.icu_75::UObject", i32, i32, i32, ptr }
%"class.icu_75::LocalPointer.1" = type { %"class.icu_75::LocalPointerBase.2" }
%"class.icu_75::LocalPointerBase.2" = type { ptr }
%"class.icu_75::CEFinalizer" = type { %"class.icu_75::CollationDataBuilder::CEModifier", ptr }
%"class.icu_75::CollationDataBuilder::CEModifier" = type { %"class.icu_75::UObject" }

@_ZTVN6icu_757UObjectE = external unnamed_addr constant { [5 x ptr] }, align 8
@_ZTVN6icu_7520CollationDataBuilder10CEModifierE = external unnamed_addr constant { [7 x ptr] }, align 8
@_ZN6icu_7511CEFinalizerD1Ev = unnamed_addr alias void (ptr), ptr @_ZN6icu_7511CEFinalizerD2Ev

; Function Attrs: mustprogress nounwind uwtable
define linkonce_odr void @_ZN6icu_757UObjectC2Ev(ptr noundef nonnull align 8 dereferenceable(8) %this) unnamed_addr #3 comdat align 2 {
entry:
  %this.addr = alloca ptr, align 8
  store ptr %this, ptr %this.addr, align 8
  %this1 = load ptr, ptr %this.addr, align 8
  store ptr getelementptr inbounds ({ [5 x ptr] }, ptr @_ZTVN6icu_757UObjectE, i32 0, i32 0, i32 2), ptr %this1, align 8
  ret void
}

; Function Attrs: mustprogress nounwind uwtable
define linkonce_odr void @_ZN6icu_7516LocalPointerBaseINS_20CollationDataBuilderEED2Ev(ptr noundef nonnull align 8 dereferenceable(8) %this) unnamed_addr #3 comdat align 2 {
entry:
  %this.addr = alloca ptr, align 8
  store ptr %this, ptr %this.addr, align 8
  ret void
}

; Function Attrs: mustprogress nounwind uwtable
define linkonce_odr void @_ZN6icu_7520CollationDataBuilder10CEModifierC2Ev(ptr noundef nonnull align 8 dereferenceable(8) %this) unnamed_addr #3 comdat align 2 {
entry:
  %this.addr = alloca ptr, align 8
  store ptr %this, ptr %this.addr, align 8
  %this1 = load ptr, ptr %this.addr, align 8
  call void @_ZN6icu_757UObjectC2Ev(ptr noundef nonnull align 8 dereferenceable(8) %this1) #6
  store ptr getelementptr inbounds ({ [7 x ptr] }, ptr @_ZTVN6icu_7520CollationDataBuilder10CEModifierE, i32 0, i32 0, i32 2), ptr %this1, align 8
  ret void
}

; Function Attrs: mustprogress nounwind uwtable
define internal noundef signext i8 @_ZL9U_SUCCESS10UErrorCode(i32 noundef %code) #3 {
entry:
  %code.addr = alloca i32, align 4
  store i32 %code, ptr %code.addr, align 4
  %0 = load i32, ptr %code.addr, align 4
  %cmp = icmp sle i32 %0, 0
  %conv = zext i1 %cmp to i8
  ret i8 %conv
}

; Function Attrs: mustprogress nounwind uwtable
define linkonce_odr void @_ZN6icu_7516LocalPointerBaseINS_20CollationDataBuilderEEC2EPS1_(ptr noundef nonnull align 8 dereferenceable(8) %this, ptr noundef %p) unnamed_addr #3 comdat align 2 {
entry:
  %this.addr = alloca ptr, align 8
  %p.addr = alloca ptr, align 8
  store ptr %this, ptr %this.addr, align 8
  store ptr %p, ptr %p.addr, align 8
  %this1 = load ptr, ptr %this.addr, align 8
  %ptr = getelementptr inbounds %"class.icu_75::LocalPointerBase.2", ptr %this1, i32 0, i32 0
  %0 = load ptr, ptr %p.addr, align 8
  store ptr %0, ptr %ptr, align 8
  ret void
}

; Function Attrs: mustprogress nounwind uwtable
define linkonce_odr void @_ZN6icu_7512LocalPointerINS_20CollationDataBuilderEED2Ev(ptr noundef nonnull align 8 dereferenceable(8) %this) unnamed_addr #3 comdat align 2 {
entry:
  %this.addr = alloca ptr, align 8
  store ptr %this, ptr %this.addr, align 8
  %this1 = load ptr, ptr %this.addr, align 8
  %ptr = getelementptr inbounds %"class.icu_75::LocalPointerBase.2", ptr %this1, i32 0, i32 0
  %0 = load ptr, ptr %ptr, align 8
  %isnull = icmp eq ptr %0, null
  br i1 %isnull, label %delete.end, label %delete.notnull

delete.notnull:                                   ; preds = %entry
  %vtable = load ptr, ptr %0, align 8
  %vfn = getelementptr inbounds ptr, ptr %vtable, i64 1
  %1 = load ptr, ptr %vfn, align 8
  call void %1(ptr noundef nonnull align 8 dereferenceable(640) %0) #6
  br label %delete.end

delete.end:                                       ; preds = %delete.notnull, %entry
  call void @_ZN6icu_7516LocalPointerBaseINS_20CollationDataBuilderEED2Ev(ptr noundef nonnull align 8 dereferenceable(8) %this1) #6
  ret void
}

; Function Attrs: mustprogress nounwind uwtable
define linkonce_odr noundef ptr @_ZN6icu_7516LocalPointerBaseINS_20CollationDataBuilderEE6orphanEv(ptr noundef nonnull align 8 dereferenceable(8) %this) #3 comdat align 2 {
entry:
  %this.addr = alloca ptr, align 8
  %p = alloca ptr, align 8
  store ptr %this, ptr %this.addr, align 8
  %this1 = load ptr, ptr %this.addr, align 8
  %ptr = getelementptr inbounds %"class.icu_75::LocalPointerBase.2", ptr %this1, i32 0, i32 0
  %0 = load ptr, ptr %ptr, align 8
  store ptr %0, ptr %p, align 8
  %ptr2 = getelementptr inbounds %"class.icu_75::LocalPointerBase.2", ptr %this1, i32 0, i32 0
  store ptr null, ptr %ptr2, align 8
  %1 = load ptr, ptr %p, align 8
  ret ptr %1
}

; Function Attrs: mustprogress nounwind uwtable
define linkonce_odr void @_ZN6icu_7511CEFinalizerC2EPKl(ptr noundef nonnull align 8 dereferenceable(16) %this, ptr noundef %ces) unnamed_addr #3 comdat align 2 {
entry:
  %this.addr = alloca ptr, align 8
  %ces.addr = alloca ptr, align 8
  store ptr %this, ptr %this.addr, align 8
  store ptr %ces, ptr %ces.addr, align 8
  %this1 = load ptr, ptr %this.addr, align 8
  call void @_ZN6icu_7520CollationDataBuilder10CEModifierC2Ev(ptr noundef nonnull align 8 dereferenceable(8) %this1) #6
  store ptr getelementptr inbounds ({ [7 x ptr] }, ptr @_ZTVN6icu_7511CEFinalizerE, i32 0, i32 0, i32 2), ptr %this1, align 8
  %finalCEs = getelementptr inbounds %"class.icu_75::CEFinalizer", ptr %this1, i32 0, i32 1
  %0 = load ptr, ptr %ces.addr, align 8
  store ptr %0, ptr %finalCEs, align 8
  ret void
}

; Function Attrs: mustprogress nounwind uwtable
define linkonce_odr noundef ptr @_ZNK6icu_759UVector649getBufferEv(ptr noundef nonnull align 8 dereferenceable(32) %this) #3 comdat align 2 {
entry:
  %this.addr = alloca ptr, align 8
  store ptr %this, ptr %this.addr, align 8
  %this1 = load ptr, ptr %this.addr, align 8
  %elements = getelementptr inbounds %"class.icu_75::UVector64", ptr %this1, i32 0, i32 4
  %0 = load ptr, ptr %elements, align 8
  ret ptr %0
}

; Function Attrs: mustprogress nounwind uwtable
define linkonce_odr noundef ptr @_ZNK6icu_7516LocalPointerBaseINS_20CollationDataBuilderEEptEv(ptr noundef nonnull align 8 dereferenceable(8) %this) #3 comdat align 2 {
entry:
  %this.addr = alloca ptr, align 8
  store ptr %this, ptr %this.addr, align 8
  %this1 = load ptr, ptr %this.addr, align 8
  %ptr = getelementptr inbounds %"class.icu_75::LocalPointerBase.2", ptr %this1, i32 0, i32 0
  %0 = load ptr, ptr %ptr, align 8
  ret ptr %0
}

; Function Attrs: mustprogress uwtable
define linkonce_odr void @_ZN6icu_7512LocalPointerINS_20CollationDataBuilderEEC2EPS1_R10UErrorCode(ptr noundef nonnull align 8 dereferenceable(8) %this, ptr noundef %p, ptr noundef nonnull align 4 dereferenceable(4) %errorCode) unnamed_addr #0 comdat align 2 {
entry:
  %this.addr = alloca ptr, align 8
  %p.addr = alloca ptr, align 8
  %errorCode.addr = alloca ptr, align 8
  store ptr %this, ptr %this.addr, align 8
  store ptr %p, ptr %p.addr, align 8
  store ptr %errorCode, ptr %errorCode.addr, align 8
  %this1 = load ptr, ptr %this.addr, align 8
  %0 = load ptr, ptr %p.addr, align 8
  call void @_ZN6icu_7516LocalPointerBaseINS_20CollationDataBuilderEEC2EPS1_(ptr noundef nonnull align 8 dereferenceable(8) %this1, ptr noundef %0)
  %1 = load ptr, ptr %p.addr, align 8
  %cmp = icmp eq ptr %1, null
  br i1 %cmp, label %land.lhs.true, label %if.end

land.lhs.true:                                    ; preds = %entry
  %2 = load ptr, ptr %errorCode.addr, align 8
  %3 = load i32, ptr %2, align 4
  %call = call noundef signext i8 @_ZL9U_SUCCESS10UErrorCode(i32 noundef %3)
  %tobool = icmp ne i8 %call, 0
  br i1 %tobool, label %if.then, label %if.end

if.then:                                          ; preds = %land.lhs.true
  %4 = load ptr, ptr %errorCode.addr, align 8
  store i32 7, ptr %4, align 4
  br label %if.end

if.end:                                           ; preds = %if.then, %land.lhs.true, %entry
  ret void
}

; Function Attrs: mustprogress nounwind uwtable
define internal noundef signext i8 @_ZL9U_FAILURE10UErrorCode(i32 noundef %code) #3 {
entry:
  %code.addr = alloca i32, align 4
  store i32 %code, ptr %code.addr, align 4
  %0 = load i32, ptr %code.addr, align 4
  %cmp = icmp sgt i32 %0, 0
  %conv = zext i1 %cmp to i8
  ret i8 %conv
}

; Function Attrs: mustprogress uwtable
define void @_ZN6icu_7516CollationBuilder11finalizeCEsER10UErrorCode(ptr noundef nonnull align 8 dereferenceable(616) %this, ptr noundef nonnull align 4 dereferenceable(4) %errorCode) #0 align 2 personality ptr @__gxx_personality_v0 {
entry:
  %this.addr = alloca ptr, align 8
  %errorCode.addr = alloca ptr, align 8
  %newBuilder = alloca %"class.icu_75::LocalPointer.1", align 8
  %saved-rvalue = alloca ptr, align 8
  %cleanup.cond = alloca i1, align 1
  %exn.slot = alloca ptr, align 8
  %ehselector.slot = alloca i32, align 4
  %cleanup.dest.slot = alloca i32, align 4
  %finalizer = alloca %"class.icu_75::CEFinalizer", align 8
  store ptr %this, ptr %this.addr, align 8
  store ptr %errorCode, ptr %errorCode.addr, align 8
  %this1 = load ptr, ptr %this.addr, align 8
  %0 = load ptr, ptr %errorCode.addr, align 8
  %1 = load i32, ptr %0, align 4
  %call = call noundef signext i8 @_ZL9U_FAILURE10UErrorCode(i32 noundef %1)
  %tobool = icmp ne i8 %call, 0
  br i1 %tobool, label %if.then, label %if.end

if.then:                                          ; preds = %entry
  br label %cleanup.cont

if.end:                                           ; preds = %entry
  %call2 = call noundef ptr @_ZN6icu_757UMemorynwEm(i64 noundef 640) #6
  %new.isnull = icmp eq ptr %call2, null
  store i1 false, ptr %cleanup.cond, align 1
  br i1 %new.isnull, label %new.cont, label %new.notnull

new.notnull:                                      ; preds = %if.end
  store ptr %call2, ptr %saved-rvalue, align 8
  store i1 true, ptr %cleanup.cond, align 1
  %icu4xMode = getelementptr inbounds %"class.icu_75::CollationBuilder", ptr %this1, i32 0, i32 10
  %2 = load i8, ptr %icu4xMode, align 1
  %3 = load ptr, ptr %errorCode.addr, align 8
  invoke void @_ZN6icu_7520CollationDataBuilderC1EaR10UErrorCode(ptr noundef nonnull align 8 dereferenceable(640) %call2, i8 noundef signext %2, ptr noundef nonnull align 4 dereferenceable(4) %3)
          to label %invoke.cont unwind label %lpad

invoke.cont:                                      ; preds = %new.notnull
  br label %new.cont

new.cont:                                         ; preds = %invoke.cont, %if.end
  %4 = phi ptr [ %call2, %invoke.cont ], [ null, %if.end ]
  %5 = load ptr, ptr %errorCode.addr, align 8
  call void @_ZN6icu_7512LocalPointerINS_20CollationDataBuilderEEC2EPS1_R10UErrorCode(ptr noundef nonnull align 8 dereferenceable(8) %newBuilder, ptr noundef %4, ptr noundef nonnull align 4 dereferenceable(4) %5)
  %6 = load ptr, ptr %errorCode.addr, align 8
  %7 = load i32, ptr %6, align 4
  %call5 = invoke noundef signext i8 @_ZL9U_FAILURE10UErrorCode(i32 noundef %7)
          to label %invoke.cont4 unwind label %lpad3

invoke.cont4:                                     ; preds = %new.cont
  %tobool6 = icmp ne i8 %call5, 0
  br i1 %tobool6, label %if.then7, label %if.end8

if.then7:                                         ; preds = %invoke.cont4
  store i32 1, ptr %cleanup.dest.slot, align 4
  br label %cleanup28

lpad:                                             ; preds = %new.notnull
  %8 = landingpad { ptr, i32 }
          cleanup
  %9 = extractvalue { ptr, i32 } %8, 0
  store ptr %9, ptr %exn.slot, align 8
  %10 = extractvalue { ptr, i32 } %8, 1
  store i32 %10, ptr %ehselector.slot, align 4
  %cleanup.is_active = load i1, ptr %cleanup.cond, align 1
  br i1 %cleanup.is_active, label %cleanup.action, label %cleanup.done

cleanup.action:                                   ; preds = %lpad
  %11 = load ptr, ptr %saved-rvalue, align 8
  call void @_ZN6icu_757UMemorydlEPv(ptr noundef %11) #6
  br label %cleanup.done

cleanup.done:                                     ; preds = %cleanup.action, %lpad
  br label %eh.resume

lpad3:                                            ; preds = %invoke.cont12, %invoke.cont11, %invoke.cont9, %if.end8, %new.cont
  %12 = landingpad { ptr, i32 }
          cleanup
  %13 = extractvalue { ptr, i32 } %12, 0
  store ptr %13, ptr %exn.slot, align 8
  %14 = extractvalue { ptr, i32 } %12, 1
  store i32 %14, ptr %ehselector.slot, align 4
  br label %ehcleanup

if.end8:                                          ; preds = %invoke.cont4
  %call10 = invoke noundef ptr @_ZNK6icu_7516LocalPointerBaseINS_20CollationDataBuilderEEptEv(ptr noundef nonnull align 8 dereferenceable(8) %newBuilder)
          to label %invoke.cont9 unwind label %lpad3

invoke.cont9:                                     ; preds = %if.end8
  %baseData = getelementptr inbounds %"class.icu_75::CollationBuilder", ptr %this1, i32 0, i32 5
  %15 = load ptr, ptr %baseData, align 8
  %16 = load ptr, ptr %errorCode.addr, align 8
  invoke void @_ZN6icu_7520CollationDataBuilder16initForTailoringEPKNS_13CollationDataER10UErrorCode(ptr noundef nonnull align 8 dereferenceable(640) %call10, ptr noundef %15, ptr noundef nonnull align 4 dereferenceable(4) %16)
          to label %invoke.cont11 unwind label %lpad3

invoke.cont11:                                    ; preds = %invoke.cont9
  %nodes = getelementptr inbounds %"class.icu_75::CollationBuilder", ptr %this1, i32 0, i32 17
  %call13 = invoke noundef ptr @_ZNK6icu_759UVector649getBufferEv(ptr noundef nonnull align 8 dereferenceable(32) %nodes)
          to label %invoke.cont12 unwind label %lpad3

invoke.cont12:                                    ; preds = %invoke.cont11
  invoke void @_ZN6icu_7511CEFinalizerC2EPKl(ptr noundef nonnull align 8 dereferenceable(16) %finalizer, ptr noundef %call13)
          to label %invoke.cont14 unwind label %lpad3

invoke.cont14:                                    ; preds = %invoke.cont12
  %call17 = invoke noundef ptr @_ZNK6icu_7516LocalPointerBaseINS_20CollationDataBuilderEEptEv(ptr noundef nonnull align 8 dereferenceable(8) %newBuilder)
          to label %invoke.cont16 unwind label %lpad15

invoke.cont16:                                    ; preds = %invoke.cont14
  %dataBuilder = getelementptr inbounds %"class.icu_75::CollationBuilder", ptr %this1, i32 0, i32 8
  %17 = load ptr, ptr %dataBuilder, align 8
  %18 = load ptr, ptr %errorCode.addr, align 8
  invoke void @_ZN6icu_7520CollationDataBuilder8copyFromERKS0_RKNS0_10CEModifierER10UErrorCode(ptr noundef nonnull align 8 dereferenceable(640) %call17, ptr noundef nonnull align 8 dereferenceable(640) %17, ptr noundef nonnull align 8 dereferenceable(8) %finalizer, ptr noundef nonnull align 4 dereferenceable(4) %18)
          to label %invoke.cont18 unwind label %lpad15

invoke.cont18:                                    ; preds = %invoke.cont16
  %19 = load ptr, ptr %errorCode.addr, align 8
  %20 = load i32, ptr %19, align 4
  %call20 = invoke noundef signext i8 @_ZL9U_FAILURE10UErrorCode(i32 noundef %20)
          to label %invoke.cont19 unwind label %lpad15

invoke.cont19:                                    ; preds = %invoke.cont18
  %tobool21 = icmp ne i8 %call20, 0
  br i1 %tobool21, label %if.then22, label %if.end23

if.then22:                                        ; preds = %invoke.cont19
  store i32 1, ptr %cleanup.dest.slot, align 4
  br label %cleanup

lpad15:                                           ; preds = %delete.end, %invoke.cont18, %invoke.cont16, %invoke.cont14
  %21 = landingpad { ptr, i32 }
          cleanup
  %22 = extractvalue { ptr, i32 } %21, 0
  store ptr %22, ptr %exn.slot, align 8
  %23 = extractvalue { ptr, i32 } %21, 1
  store i32 %23, ptr %ehselector.slot, align 4
  call void @_ZN6icu_7511CEFinalizerD1Ev(ptr noundef nonnull align 8 dereferenceable(16) %finalizer) #6
  br label %ehcleanup

if.end23:                                         ; preds = %invoke.cont19
  %dataBuilder24 = getelementptr inbounds %"class.icu_75::CollationBuilder", ptr %this1, i32 0, i32 8
  %24 = load ptr, ptr %dataBuilder24, align 8
  %isnull = icmp eq ptr %24, null
  br i1 %isnull, label %delete.end, label %delete.notnull

delete.notnull:                                   ; preds = %if.end23
  %vtable = load ptr, ptr %24, align 8
  %vfn = getelementptr inbounds ptr, ptr %vtable, i64 1
  %25 = load ptr, ptr %vfn, align 8
  call void %25(ptr noundef nonnull align 8 dereferenceable(640) %24) #6
  br label %delete.end

delete.end:                                       ; preds = %delete.notnull, %if.end23
  %call26 = invoke noundef ptr @_ZN6icu_7516LocalPointerBaseINS_20CollationDataBuilderEE6orphanEv(ptr noundef nonnull align 8 dereferenceable(8) %newBuilder)
          to label %invoke.cont25 unwind label %lpad15

invoke.cont25:                                    ; preds = %delete.end
  %dataBuilder27 = getelementptr inbounds %"class.icu_75::CollationBuilder", ptr %this1, i32 0, i32 8
  store ptr %call26, ptr %dataBuilder27, align 8
  store i32 0, ptr %cleanup.dest.slot, align 4
  br label %cleanup

cleanup:                                          ; preds = %invoke.cont25, %if.then22
  call void @_ZN6icu_7511CEFinalizerD1Ev(ptr noundef nonnull align 8 dereferenceable(16) %finalizer) #6
  br label %cleanup28

cleanup28:                                        ; preds = %cleanup, %if.then7
  call void @_ZN6icu_7512LocalPointerINS_20CollationDataBuilderEED2Ev(ptr noundef nonnull align 8 dereferenceable(8) %newBuilder) #6
  %cleanup.dest = load i32, ptr %cleanup.dest.slot, align 4
  switch i32 %cleanup.dest, label %unreachable [
    i32 0, label %cleanup.cont
    i32 1, label %cleanup.cont
  ]

cleanup.cont:                                     ; preds = %cleanup28, %cleanup28, %if.then
  ret void

ehcleanup:                                        ; preds = %lpad15, %lpad3
  call void @_ZN6icu_7512LocalPointerINS_20CollationDataBuilderEED2Ev(ptr noundef nonnull align 8 dereferenceable(8) %newBuilder) #6
  br label %eh.resume

eh.resume:                                        ; preds = %ehcleanup, %cleanup.done
  %exn = load ptr, ptr %exn.slot, align 8
  %sel = load i32, ptr %ehselector.slot, align 4
  %lpad.val = insertvalue { ptr, i32 } poison, ptr %exn, 0
  %lpad.val29 = insertvalue { ptr, i32 } %lpad.val, i32 %sel, 1
  resume { ptr, i32 } %lpad.val29

unreachable:                                      ; preds = %cleanup28
  unreachable
}