; Function Attrs: mustprogress uwtable
define void @_ZN6icu_7516CollationBuilder11finalizeCEsER10UErrorCode(ptr nocapture noundef nonnull align 8 dereferenceable(616) %this, ptr noundef nonnull align 4 dereferenceable(4) %errorCode) local_unnamed_addr #0 align 2 personality ptr @__gxx_personality_v0 {
entry:
  %finalizer = alloca %"class.icu_75::CEFinalizer", align 8
  %0 = load i32, ptr %errorCode, align 4
  %cmp.i = icmp slt i32 %0, 1
  br i1 %cmp.i, label %if.end, label %cleanup.cont

if.end:                                           ; preds = %entry
  %call2 = tail call noundef ptr @_ZN6icu_757UMemorynwEm(i64 noundef 640) #12
  %new.isnull = icmp eq ptr %call2, null
  br i1 %new.isnull, label %new.cont, label %new.notnull

new.notnull:                                      ; preds = %if.end
  %icu4xMode = getelementptr inbounds i8, ptr %this, i64 81
  %1 = load i8, ptr %icu4xMode, align 1
  invoke void @_ZN6icu_7520CollationDataBuilderC1EaR10UErrorCode(ptr noundef nonnull align 8 dereferenceable(640) %call2, i8 noundef signext %1, ptr noundef nonnull align 4 dereferenceable(4) %errorCode)
          to label %_ZN6icu_7512LocalPointerINS_20CollationDataBuilderEEC2EPS1_R10UErrorCode.exit unwind label %lpad

new.cont:                                         ; preds = %if.end
  %2 = load i32, ptr %errorCode, align 4
  %cmp.i.i = icmp sgt i32 %2, 0
  br i1 %cmp.i.i, label %cleanup.cont, label %if.then.i

if.then.i:                                        ; preds = %new.cont
  store i32 7, ptr %errorCode, align 4
  br label %cleanup.cont

_ZN6icu_7512LocalPointerINS_20CollationDataBuilderEEC2EPS1_R10UErrorCode.exit: ; preds = %new.notnull
  %.pre = load i32, ptr %errorCode, align 4
  %3 = icmp slt i32 %.pre, 1
  br i1 %3, label %if.end8, label %delete.notnull.i

lpad:                                             ; preds = %new.notnull
  %4 = landingpad { ptr, i32 }
          cleanup
  tail call void @_ZN6icu_757UMemorydlEPv(ptr noundef nonnull %call2) #12
  br label %eh.resume

lpad3:                                            ; preds = %if.end8
  %5 = landingpad { ptr, i32 }
          cleanup
  br label %delete.notnull.i15

if.end8:                                          ; preds = %_ZN6icu_7512LocalPointerINS_20CollationDataBuilderEEC2EPS1_R10UErrorCode.exit
  %baseData = getelementptr inbounds i8, ptr %this, i64 40
  %6 = load ptr, ptr %baseData, align 8
  invoke void @_ZN6icu_7520CollationDataBuilder16initForTailoringEPKNS_13CollationDataER10UErrorCode(ptr noundef nonnull align 8 dereferenceable(640) %call2, ptr noundef %6, ptr noundef nonnull align 4 dereferenceable(4) %errorCode)
          to label %invoke.cont11 unwind label %lpad3

invoke.cont11:                                    ; preds = %if.end8
  %elements.i = getelementptr inbounds i8, ptr %this, i64 608
  %7 = load ptr, ptr %elements.i, align 8
  store ptr getelementptr inbounds ({ [7 x ptr] }, ptr @_ZTVN6icu_7511CEFinalizerE, i64 0, i32 0, i64 2), ptr %finalizer, align 8
  %finalCEs.i = getelementptr inbounds i8, ptr %finalizer, i64 8
  store ptr %7, ptr %finalCEs.i, align 8
  %dataBuilder = getelementptr inbounds i8, ptr %this, i64 72
  %8 = load ptr, ptr %dataBuilder, align 8
  invoke void @_ZN6icu_7520CollationDataBuilder8copyFromERKS0_RKNS0_10CEModifierER10UErrorCode(ptr noundef nonnull align 8 dereferenceable(640) %call2, ptr noundef nonnull align 8 dereferenceable(640) %8, ptr noundef nonnull align 8 dereferenceable(8) %finalizer, ptr noundef nonnull align 4 dereferenceable(4) %errorCode)
          to label %invoke.cont18 unwind label %lpad15

invoke.cont18:                                    ; preds = %invoke.cont11
  %9 = load i32, ptr %errorCode, align 4
  %cmp.i12 = icmp slt i32 %9, 1
  br i1 %cmp.i12, label %if.end23, label %cleanup28

lpad15:                                           ; preds = %invoke.cont11
  %10 = landingpad { ptr, i32 }
          cleanup
  call void @_ZN6icu_7511CEFinalizerD1Ev(ptr noundef nonnull align 8 dereferenceable(16) %finalizer) #12
  br label %delete.notnull.i15

if.end23:                                         ; preds = %invoke.cont18
  %11 = load ptr, ptr %dataBuilder, align 8
  %isnull = icmp eq ptr %11, null
  br i1 %isnull, label %cleanup28.thread33, label %delete.notnull

delete.notnull:                                   ; preds = %if.end23
  %vtable = load ptr, ptr %11, align 8
  %vfn = getelementptr inbounds i8, ptr %vtable, i64 8
  %12 = load ptr, ptr %vfn, align 8
  call void %12(ptr noundef nonnull align 8 dereferenceable(640) %11) #12
  br label %cleanup28.thread33

cleanup28.thread33:                               ; preds = %if.end23, %delete.notnull
  store ptr %call2, ptr %dataBuilder, align 8
  call void @_ZN6icu_7511CEFinalizerD1Ev(ptr noundef nonnull align 8 dereferenceable(16) %finalizer) #12
  br label %cleanup.cont

cleanup28:                                        ; preds = %invoke.cont18
  call void @_ZN6icu_7511CEFinalizerD1Ev(ptr noundef nonnull align 8 dereferenceable(16) %finalizer) #12
  br label %delete.notnull.i

delete.notnull.i:                                 ; preds = %_ZN6icu_7512LocalPointerINS_20CollationDataBuilderEEC2EPS1_R10UErrorCode.exit, %cleanup28
  %vtable.i = load ptr, ptr %call2, align 8
  %vfn.i = getelementptr inbounds i8, ptr %vtable.i, i64 8
  %13 = load ptr, ptr %vfn.i, align 8
  call void %13(ptr noundef nonnull align 8 dereferenceable(640) %call2) #12
  br label %cleanup.cont

cleanup.cont:                                     ; preds = %new.cont, %if.then.i, %cleanup28.thread33, %delete.notnull.i, %entry
  ret void

delete.notnull.i15:                               ; preds = %lpad3, %lpad15
  %.pn = phi { ptr, i32 } [ %10, %lpad15 ], [ %5, %lpad3 ]
  %vtable.i16 = load ptr, ptr %call2, align 8
  %vfn.i17 = getelementptr inbounds i8, ptr %vtable.i16, i64 8
  %14 = load ptr, ptr %vfn.i17, align 8
  call void %14(ptr noundef nonnull align 8 dereferenceable(640) %call2) #12
  br label %eh.resume

eh.resume:                                        ; preds = %delete.notnull.i15, %lpad
  %.pn.pn = phi { ptr, i32 } [ %4, %lpad ], [ %.pn, %delete.notnull.i15 ]
  resume { ptr, i32 } %.pn.pn
}